; Function Attrs: mustprogress uwtable
define void @_ZNK5faiss16ProductQuantizer22compute_distance_tableEPKfPf(ptr nocapture noundef nonnull readonly align 8 dereferenceable(208) %0, ptr noundef %1, ptr noundef %2) local_unnamed_addr #0 align 2 {
  %4 = getelementptr inbounds i8, ptr %0, i64 136
  %5 = load ptr, ptr %4, align 8
  %6 = getelementptr inbounds i8, ptr %0, i64 144
  %7 = load ptr, ptr %6, align 8
  %8 = icmp eq ptr %5, %7
  %9 = getelementptr inbounds i8, ptr %0, i64 24
  %10 = load i64, ptr %9, align 8
  %.not21 = icmp eq i64 %10, 0
  br i1 %8, label %.preheader, label %.preheader16

.preheader16:                                     ; preds = %3
  br i1 %.not21, label %.loopexit, label %.lr.ph

.lr.ph:                                           ; preds = %.preheader16
  %11 = getelementptr inbounds i8, ptr %0, i64 48
  %12 = getelementptr inbounds i8, ptr %0, i64 40
  %13 = getelementptr inbounds i8, ptr %0, i64 160
  br label %30

.preheader:                                       ; preds = %3
  br i1 %.not21, label %.loopexit, label %.lr.ph20

.lr.ph20:                                         ; preds = %.preheader
  %14 = getelementptr inbounds i8, ptr %0, i64 48
  %15 = getelementptr inbounds i8, ptr %0, i64 40
  %16 = getelementptr inbounds i8, ptr %0, i64 112
  br label %17

17:                                               ; preds = %.lr.ph20, %17
  %.01519 = phi i64 [ 0, %.lr.ph20 ], [ %27, %17 ]
  %18 = load i64, ptr %14, align 8
  %19 = mul i64 %18, %.01519
  %20 = getelementptr inbounds float, ptr %2, i64 %19
  %21 = load i64, ptr %15, align 8
  %22 = mul i64 %21, %.01519
  %23 = getelementptr inbounds float, ptr %1, i64 %22
  %24 = mul i64 %19, %21
  %25 = load ptr, ptr %16, align 8
  %26 = getelementptr inbounds float, ptr %25, i64 %24
  tail call void @_ZN5faiss13fvec_L2sqr_nyEPfPKfS2_mm(ptr noundef %20, ptr noundef %23, ptr noundef %26, i64 noundef %21, i64 noundef %18)
  %27 = add nuw i64 %.01519, 1
  %28 = load i64, ptr %9, align 8
  %29 = icmp ult i64 %27, %28
  br i1 %29, label %17, label %.loopexit, !llvm.loop !42

30:                                               ; preds = %.lr.ph, %30
  %31 = phi i64 [ %10, %.lr.ph ], [ %44, %30 ]
  %.018 = phi i64 [ 0, %.lr.ph ], [ %43, %30 ]
  %32 = load i64, ptr %11, align 8
  %33 = mul i64 %32, %.018
  %34 = getelementptr inbounds float, ptr %2, i64 %33
  %35 = load i64, ptr %12, align 8
  %36 = mul i64 %35, %.018
  %37 = getelementptr inbounds float, ptr %1, i64 %36
  %38 = load ptr, ptr %4, align 8
  %39 = getelementptr inbounds float, ptr %38, i64 %33
  %40 = load ptr, ptr %13, align 8
  %41 = getelementptr inbounds float, ptr %40, i64 %33
  %42 = mul i64 %32, %31
  tail call void @_ZN5faiss24fvec_L2sqr_ny_transposedEPfPKfS2_S2_mmm(ptr noundef %34, ptr noundef %37, ptr noundef %39, ptr noundef %41, i64 noundef %35, i64 noundef %42, i64 noundef %32)
  %43 = add nuw i64 %.018, 1
  %44 = load i64, ptr %9, align 8
  %45 = icmp ult i64 %43, %44
  br i1 %45, label %30, label %.loopexit, !llvm.loop !43

.loopexit:                                        ; preds = %30, %17, %.preheader16, %.preheader
  ret void
}